; Function Attrs: mustprogress uwtable
define void @_ZN8QuantLib19SimpleChooserOptionC2ENS_4DateEdRKN5boost10shared_ptrINS_8ExerciseEEE(ptr noundef nonnull align 8 dereferenceable(232) %this, ptr noundef %vtt, i64 %choosingDate.coerce, double noundef %strike, ptr noundef nonnull align 8 dereferenceable(16) %exercise) unnamed_addr #9 align 2 personality ptr @__gxx_personality_v0 {
entry:
  %strike.addr = alloca double, align 8
  %ref.tmp = alloca %"class.boost::shared_ptr.16", align 8
  %ref.tmp3 = alloca %"class.boost::shared_ptr.18", align 8
  %ref.tmp4 = alloca i32, align 4
  store double %strike, ptr %strike.addr, align 8, !tbaa !48
  call void @llvm.lifetime.start.p0(i64 16, ptr nonnull %ref.tmp) #25
  call void @llvm.lifetime.start.p0(i64 16, ptr nonnull %ref.tmp3) #25
  call void @llvm.lifetime.start.p0(i64 4, ptr nonnull %ref.tmp4) #25
  store i32 1, ptr %ref.tmp4, align 4, !tbaa !50
  call void @_ZN5boost11make_sharedIN8QuantLib18PlainVanillaPayoffEJNS1_6Option4TypeERdEEENS_6detail15sp_if_not_arrayIT_E4typeEDpOT0_(ptr dead_on_unwind nonnull writable sret(%"class.boost::shared_ptr.18") align 8 %ref.tmp3, ptr noundef nonnull align 4 dereferenceable(4) %ref.tmp4, ptr noundef nonnull align 8 dereferenceable(8) %strike.addr)
  %0 = load ptr, ptr %ref.tmp3, align 8, !tbaa !52
  store ptr %0, ptr %ref.tmp, align 8, !tbaa !40
  %pn.i = getelementptr inbounds nuw i8, ptr %ref.tmp, i64 8
  %pn3.i = getelementptr inbounds nuw i8, ptr %ref.tmp3, i64 8
  %1 = load ptr, ptr %pn3.i, align 8, !tbaa !43
  store ptr %1, ptr %pn.i, align 8, !tbaa !43
  call void @llvm.memset.p0.i64(ptr noundef nonnull align 8 dereferenceable(16) %ref.tmp3, i8 0, i64 16, i1 false)
  %2 = getelementptr inbounds i8, ptr %vtt, i64 8
  invoke void @_ZN8QuantLib14OneAssetOptionC2ERKN5boost10shared_ptrINS_6PayoffEEERKNS2_INS_8ExerciseEEE(ptr noundef nonnull align 8 dereferenceable(224) %this, ptr noundef nonnull %2, ptr noundef nonnull align 8 dereferenceable(16) %ref.tmp, ptr noundef nonnull align 8 dereferenceable(16) %exercise)
          to label %invoke.cont unwind label %lpad

invoke.cont:                                      ; preds = %entry
  %3 = load ptr, ptr %pn.i, align 8, !tbaa !43
  %cmp.not.i.i = icmp eq ptr %3, null
  br i1 %cmp.not.i.i, label %_ZN5boost10shared_ptrIN8QuantLib6PayoffEED2Ev.exit, label %if.then.i.i

if.then.i.i:                                      ; preds = %invoke.cont
  %use_count_.i.i.i = getelementptr inbounds nuw i8, ptr %3, i64 8
  %4 = atomicrmw sub ptr %use_count_.i.i.i, i32 1 acq_rel, align 4
  %cmp.i.i.i = icmp eq i32 %4, 1
  br i1 %cmp.i.i.i, label %if.then.i.i.i, label %_ZN5boost10shared_ptrIN8QuantLib6PayoffEED2Ev.exit

if.then.i.i.i:                                    ; preds = %if.then.i.i
  %vtable.i.i.i = load ptr, ptr %3, align 8, !tbaa !33
  %vfn.i.i.i = getelementptr inbounds i8, ptr %vtable.i.i.i, i64 16
  %5 = load ptr, ptr %vfn.i.i.i, align 8
  invoke void %5(ptr noundef nonnull align 8 dereferenceable(16) %3)
          to label %.noexc.i.i unwind label %terminate.lpad.i.i

.noexc.i.i:                                       ; preds = %if.then.i.i.i
  %weak_count_.i.i.i.i = getelementptr inbounds nuw i8, ptr %3, i64 12
  %6 = atomicrmw sub ptr %weak_count_.i.i.i.i, i32 1 acq_rel, align 4
  %cmp.i.i.i.i = icmp eq i32 %6, 1
  br i1 %cmp.i.i.i.i, label %if.then.i.i.i.i, label %_ZN5boost10shared_ptrIN8QuantLib6PayoffEED2Ev.exit

if.then.i.i.i.i:                                  ; preds = %.noexc.i.i
  %vtable.i.i.i.i = load ptr, ptr %3, align 8, !tbaa !33
  %vfn.i.i.i.i = getelementptr inbounds i8, ptr %vtable.i.i.i.i, i64 24
  %7 = load ptr, ptr %vfn.i.i.i.i, align 8
  invoke void %7(ptr noundef nonnull align 8 dereferenceable(16) %3)
          to label %_ZN5boost10shared_ptrIN8QuantLib6PayoffEED2Ev.exit unwind label %terminate.lpad.i.i

terminate.lpad.i.i:                               ; preds = %if.then.i.i.i.i, %if.then.i.i.i
  %8 = landingpad { ptr, i32 }
          catch ptr null
  %9 = extractvalue { ptr, i32 } %8, 0
  call void @__clang_call_terminate(ptr %9) #26
  unreachable

_ZN5boost10shared_ptrIN8QuantLib6PayoffEED2Ev.exit: ; preds = %invoke.cont, %if.then.i.i, %.noexc.i.i, %if.then.i.i.i.i
  %10 = load ptr, ptr %pn3.i, align 8, !tbaa !43
  %cmp.not.i.i3 = icmp eq ptr %10, null
  br i1 %cmp.not.i.i3, label %_ZN5boost10shared_ptrIN8QuantLib18PlainVanillaPayoffEED2Ev.exit, label %if.then.i.i4

if.then.i.i4:                                     ; preds = %_ZN5boost10shared_ptrIN8QuantLib6PayoffEED2Ev.exit
  %use_count_.i.i.i5 = getelementptr inbounds nuw i8, ptr %10, i64 8
  %11 = atomicrmw sub ptr %use_count_.i.i.i5, i32 1 acq_rel, align 4
  %cmp.i.i.i6 = icmp eq i32 %11, 1
  br i1 %cmp.i.i.i6, label %if.then.i.i.i7, label %_ZN5boost10shared_ptrIN8QuantLib18PlainVanillaPayoffEED2Ev.exit

if.then.i.i.i7:                                   ; preds = %if.then.i.i4
  %vtable.i.i.i8 = load ptr, ptr %10, align 8, !tbaa !33
  %vfn.i.i.i9 = getelementptr inbounds i8, ptr %vtable.i.i.i8, i64 16
  %12 = load ptr, ptr %vfn.i.i.i9, align 8
  invoke void %12(ptr noundef nonnull align 8 dereferenceable(16) %10)
          to label %.noexc.i.i11 unwind label %terminate.lpad.i.i10

.noexc.i.i11:                                     ; preds = %if.then.i.i.i7
  %weak_count_.i.i.i.i12 = getelementptr inbounds nuw i8, ptr %10, i64 12
  %13 = atomicrmw sub ptr %weak_count_.i.i.i.i12, i32 1 acq_rel, align 4
  %cmp.i.i.i.i13 = icmp eq i32 %13, 1
  br i1 %cmp.i.i.i.i13, label %if.then.i.i.i.i14, label %_ZN5boost10shared_ptrIN8QuantLib18PlainVanillaPayoffEED2Ev.exit

if.then.i.i.i.i14:                                ; preds = %.noexc.i.i11
  %vtable.i.i.i.i15 = load ptr, ptr %10, align 8, !tbaa !33
  %vfn.i.i.i.i16 = getelementptr inbounds i8, ptr %vtable.i.i.i.i15, i64 24
  %14 = load ptr, ptr %vfn.i.i.i.i16, align 8
  invoke void %14(ptr noundef nonnull align 8 dereferenceable(16) %10)
          to label %_ZN5boost10shared_ptrIN8QuantLib18PlainVanillaPayoffEED2Ev.exit unwind label %terminate.lpad.i.i10

terminate.lpad.i.i10:                             ; preds = %if.then.i.i.i.i14, %if.then.i.i.i7
  %15 = landingpad { ptr, i32 }
          catch ptr null
  %16 = extractvalue { ptr, i32 } %15, 0
  call void @__clang_call_terminate(ptr %16) #26
  unreachable

_ZN5boost10shared_ptrIN8QuantLib18PlainVanillaPayoffEED2Ev.exit: ; preds = %_ZN5boost10shared_ptrIN8QuantLib6PayoffEED2Ev.exit, %if.then.i.i4, %.noexc.i.i11, %if.then.i.i.i.i14
  call void @llvm.lifetime.end.p0(i64 4, ptr nonnull %ref.tmp4) #25
  call void @llvm.lifetime.end.p0(i64 16, ptr nonnull %ref.tmp3) #25
  call void @llvm.lifetime.end.p0(i64 16, ptr nonnull %ref.tmp) #25
  %17 = load ptr, ptr %vtt, align 8
  store ptr %17, ptr %this, align 8, !tbaa !33
  %18 = getelementptr inbounds i8, ptr %vtt, i64 104
  %19 = load ptr, ptr %18, align 8
  %vbase.offset.ptr = getelementptr i8, ptr %17, i64 -24
  %vbase.offset = load i64, ptr %vbase.offset.ptr, align 8
  %add.ptr = getelementptr inbounds i8, ptr %this, i64 %vbase.offset
  store ptr %19, ptr %add.ptr, align 8, !tbaa !33
  %20 = getelementptr inbounds i8, ptr %vtt, i64 112
  %21 = load ptr, ptr %20, align 8
  %vtable5 = load ptr, ptr %this, align 8, !tbaa !33
  %vbase.offset.ptr6 = getelementptr i8, ptr %vtable5, i64 -32
  %vbase.offset7 = load i64, ptr %vbase.offset.ptr6, align 8
  %add.ptr8 = getelementptr inbounds i8, ptr %this, i64 %vbase.offset7
  store ptr %21, ptr %add.ptr8, align 8, !tbaa !33
  %choosingDate_ = getelementptr inbounds nuw i8, ptr %this, i64 224
  store i64 %choosingDate.coerce, ptr %choosingDate_, align 8, !tbaa !47
  ret void

lpad:                                             ; preds = %entry
  %22 = landingpad { ptr, i32 }
          cleanup
  call void @_ZN5boost10shared_ptrIN8QuantLib6PayoffEED2Ev(ptr noundef nonnull align 8 dereferenceable(16) %ref.tmp) #25
  call void @_ZN5boost10shared_ptrIN8QuantLib18PlainVanillaPayoffEED2Ev(ptr noundef nonnull align 8 dereferenceable(16) %ref.tmp3) #25
  call void @llvm.lifetime.end.p0(i64 4, ptr nonnull %ref.tmp4) #25
  call void @llvm.lifetime.end.p0(i64 16, ptr nonnull %ref.tmp3) #25
  call void @llvm.lifetime.end.p0(i64 16, ptr nonnull %ref.tmp) #25
  resume { ptr, i32 } %22
}